target datalayout = "e-m:e-p270:32:32-p271:32:32-p272:64:64-i64:64-i128:128-f80:128-n8:16:32:64-S128"
target triple = "x86_64-pc-linux-gnu"

%struct.rb_io_buffer = type { ptr, i64, i32, i64 }

@rb_eIOBufferAllocationError = hidden global i64 0, align 8
@.str.109 = private unnamed_addr constant [27 x i8] c"Could not allocate buffer!\00", align 1
@.str.110 = private unnamed_addr constant [15 x i8] c"../io_buffer.c\00", align 1
@.str.111 = private unnamed_addr constant [26 x i8] c"io_buffer_map_memory:mmap\00", align 1
@.str.112 = private unnamed_addr constant [26 x i8] c"Ruby:io_buffer_map_memory\00", align 1

; Function Attrs: inlinehint nounwind sspstrong willreturn memory(none) uwtable
define internal zeroext i1 @RB_IMMEDIATE_P(i64 noundef %0) #11 {
  %2 = alloca i64, align 8
  store i64 %0, ptr %2, align 8, !tbaa !20
  %3 = load i64, ptr %2, align 8, !tbaa !20
  %4 = and i64 %3, 7
  %5 = icmp ne i64 %4, 0
  ret i1 %5
}

; Function Attrs: inlinehint nounwind sspstrong willreturn memory(none) uwtable
define internal zeroext i1 @RB_SPECIAL_CONST_P(i64 noundef %0) #11 {
  %2 = alloca i64, align 8
  store i64 %0, ptr %2, align 8, !tbaa !20
  %3 = load i64, ptr %2, align 8, !tbaa !20
  %4 = icmp eq i64 %3, 0
  br i1 %4, label %8, label %5

5:                                                ; preds = %1
  %6 = load i64, ptr %2, align 8, !tbaa !20
  %7 = call zeroext i1 @RB_IMMEDIATE_P(i64 noundef %6) #24
  br label %8

8:                                                ; preds = %5, %1
  %9 = phi i1 [ true, %1 ], [ %7, %5 ]
  ret i1 %9
}

; Function Attrs: inlinehint nounwind sspstrong uwtable
define internal i64 @rb_obj_written(i64 noundef %0, i64 noundef %1, i64 noundef %2, ptr noundef %3, i32 noundef %4) #3 {
  %6 = alloca i64, align 8
  %7 = alloca i64, align 8
  %8 = alloca i64, align 8
  %9 = alloca ptr, align 8
  %10 = alloca i32, align 4
  store i64 %0, ptr %6, align 8, !tbaa !20
  store i64 %1, ptr %7, align 8, !tbaa !20
  store i64 %2, ptr %8, align 8, !tbaa !20
  store ptr %3, ptr %9, align 8, !tbaa !35
  store i32 %4, ptr %10, align 4, !tbaa !32
  %11 = load i64, ptr %8, align 8, !tbaa !20
  %12 = call zeroext i1 @RB_SPECIAL_CONST_P(i64 noundef %11) #24
  br i1 %12, label %16, label %13

13:                                               ; preds = %5
  %14 = load i64, ptr %6, align 8, !tbaa !20
  %15 = load i64, ptr %8, align 8, !tbaa !20
  call void @rb_gc_writebarrier(i64 noundef %14, i64 noundef %15)
  br label %16

16:                                               ; preds = %13, %5
  %17 = load i64, ptr %6, align 8, !tbaa !20
  ret i64 %17
}

; Function Attrs: inlinehint nounwind sspstrong uwtable
define internal i64 @rb_obj_write(i64 noundef %0, ptr noundef %1, i64 noundef %2, ptr noundef %3, i32 noundef %4) #3 {
  %6 = alloca i64, align 8
  %7 = alloca ptr, align 8
  %8 = alloca i64, align 8
  %9 = alloca ptr, align 8
  %10 = alloca i32, align 4
  store i64 %0, ptr %6, align 8, !tbaa !20
  store ptr %1, ptr %7, align 8, !tbaa !33
  store i64 %2, ptr %8, align 8, !tbaa !20
  store ptr %3, ptr %9, align 8, !tbaa !35
  store i32 %4, ptr %10, align 4, !tbaa !32
  %11 = load i64, ptr %8, align 8, !tbaa !20
  %12 = load ptr, ptr %7, align 8, !tbaa !33
  store i64 %11, ptr %12, align 8, !tbaa !20
  %13 = load i64, ptr %6, align 8, !tbaa !20
  %14 = load i64, ptr %8, align 8, !tbaa !20
  %15 = load ptr, ptr %9, align 8, !tbaa !35
  %16 = load i32, ptr %10, align 4, !tbaa !32
  %17 = call i64 @rb_obj_written(i64 noundef %13, i64 noundef 36, i64 noundef %14, ptr noundef %15, i32 noundef %16)
  %18 = load i64, ptr %6, align 8, !tbaa !20
  ret i64 %18
}

; Function Attrs: inlinehint nounwind sspstrong uwtable
define internal ptr @io_buffer_map_memory(i64 noundef %0, i32 noundef %1) #3 {
  %3 = alloca i64, align 8
  %4 = alloca i32, align 4
  %5 = alloca i32, align 4
  %6 = alloca ptr, align 8
  %7 = alloca i32, align 4
  store i64 %0, ptr %3, align 8, !tbaa !20
  store i32 %1, ptr %4, align 4, !tbaa !32
  call void @llvm.lifetime.start.p0(i64 4, ptr %5) #22
  store i32 32, ptr %5, align 4, !tbaa !32
  %8 = load i32, ptr %4, align 4, !tbaa !32
  %9 = and i32 %8, 8
  %10 = icmp ne i32 %9, 0
  br i1 %10, label %11, label %14

11:                                               ; preds = %2
  %12 = load i32, ptr %5, align 4, !tbaa !32
  %13 = or i32 %12, 1
  store i32 %13, ptr %5, align 4, !tbaa !32
  br label %17

14:                                               ; preds = %2
  %15 = load i32, ptr %5, align 4, !tbaa !32
  %16 = or i32 %15, 2
  store i32 %16, ptr %5, align 4, !tbaa !32
  br label %17

17:                                               ; preds = %14, %11
  call void @llvm.lifetime.start.p0(i64 8, ptr %6) #22
  %18 = load i64, ptr %3, align 8, !tbaa !20
  %19 = load i32, ptr %5, align 4, !tbaa !32
  %20 = call ptr @mmap(ptr noundef null, i64 noundef %18, i32 noundef 3, i32 noundef %19, i32 noundef -1, i64 noundef 0) #22
  store ptr %20, ptr %6, align 8, !tbaa !7
  %21 = load ptr, ptr %6, align 8, !tbaa !7
  %22 = icmp eq ptr %21, inttoptr (i64 -1 to ptr)
  br i1 %22, label %23, label %30

23:                                               ; preds = %17
  br label %24

24:                                               ; preds = %23
  call void @llvm.lifetime.start.p0(i64 4, ptr %7) #22
  %25 = call ptr @rb_errno_ptr()
  %26 = load i32, ptr %25, align 4, !tbaa !32
  store i32 %26, ptr %7, align 4, !tbaa !32
  %27 = load i32, ptr %7, align 4, !tbaa !32
  call void @rb_syserr_fail(i32 noundef %27, ptr noundef @.str.111) #26
  unreachable

28:                                               ; No predecessors!
  br label %29

29:                                               ; preds = %28
  br label %30

30:                                               ; preds = %29, %17
  %31 = load ptr, ptr %6, align 8, !tbaa !7
  %32 = load i64, ptr %3, align 8, !tbaa !20
  call void @ruby_annotate_mmap(ptr noundef %31, i64 noundef %32, ptr noundef @.str.112)
  %33 = load ptr, ptr %6, align 8, !tbaa !7
  call void @llvm.lifetime.end.p0(i64 8, ptr %6) #22
  call void @llvm.lifetime.end.p0(i64 4, ptr %5) #22
  ret ptr %33
}

; Function Attrs: nounwind sspstrong uwtable
define internal void @io_buffer_initialize(i64 noundef %0, ptr noundef %1, ptr noundef %2, i64 noundef %3, i32 noundef %4, i64 noundef %5) #0 {
  %7 = alloca i64, align 8
  %8 = alloca ptr, align 8
  %9 = alloca ptr, align 8
  %10 = alloca i64, align 8
  %11 = alloca i32, align 4
  %12 = alloca i64, align 8
  store i64 %0, ptr %7, align 8, !tbaa !20
  store ptr %1, ptr %8, align 8, !tbaa !11
  store ptr %2, ptr %9, align 8, !tbaa !7
  store i64 %3, ptr %10, align 8, !tbaa !20
  store i32 %4, ptr %11, align 4, !tbaa !32
  store i64 %5, ptr %12, align 8, !tbaa !20
  %13 = load ptr, ptr %9, align 8, !tbaa !7
  %14 = icmp ne ptr %13, null
  br i1 %14, label %15, label %16

15:                                               ; preds = %6
  br label %43

16:                                               ; preds = %6
  %17 = load i64, ptr %10, align 8, !tbaa !20
  %18 = icmp ne i64 %17, 0
  br i1 %18, label %19, label %41

19:                                               ; preds = %16
  %20 = load i32, ptr %11, align 4, !tbaa !32
  %21 = and i32 %20, 2
  %22 = icmp ne i32 %21, 0
  br i1 %22, label %23, label %26

23:                                               ; preds = %19
  %24 = load i64, ptr %10, align 8, !tbaa !20
  %25 = call noalias ptr @calloc(i64 noundef %24, i64 noundef 1) #25
  store ptr %25, ptr %9, align 8, !tbaa !7
  br label %35

26:                                               ; preds = %19
  %27 = load i32, ptr %11, align 4, !tbaa !32
  %28 = and i32 %27, 4
  %29 = icmp ne i32 %28, 0
  br i1 %29, label %30, label %34

30:                                               ; preds = %26
  %31 = load i64, ptr %10, align 8, !tbaa !20
  %32 = load i32, ptr %11, align 4, !tbaa !32
  %33 = call ptr @io_buffer_map_memory(i64 noundef %31, i32 noundef %32)
  store ptr %33, ptr %9, align 8, !tbaa !7
  br label %34

34:                                               ; preds = %30, %26
  br label %35

35:                                               ; preds = %34, %23
  %36 = load ptr, ptr %9, align 8, !tbaa !7
  %37 = icmp ne ptr %36, null
  br i1 %37, label %40, label %38

38:                                               ; preds = %35
  %39 = load i64, ptr @rb_eIOBufferAllocationError, align 8, !tbaa !20
  call void (i64, ptr, ...) @rb_raise(i64 noundef %39, ptr noundef @.str.109) #26
  unreachable

40:                                               ; preds = %35
  br label %42

41:                                               ; preds = %16
  br label %58

42:                                               ; preds = %40
  br label %43

43:                                               ; preds = %42, %15
  %44 = load ptr, ptr %9, align 8, !tbaa !7
  %45 = load ptr, ptr %8, align 8, !tbaa !11
  %46 = getelementptr inbounds nuw %struct.rb_io_buffer, ptr %45, i32 0, i32 0
  store ptr %44, ptr %46, align 8, !tbaa !17
  %47 = load i64, ptr %10, align 8, !tbaa !20
  %48 = load ptr, ptr %8, align 8, !tbaa !11
  %49 = getelementptr inbounds nuw %struct.rb_io_buffer, ptr %48, i32 0, i32 1
  store i64 %47, ptr %49, align 8, !tbaa !19
  %50 = load i32, ptr %11, align 4, !tbaa !32
  %51 = load ptr, ptr %8, align 8, !tbaa !11
  %52 = getelementptr inbounds nuw %struct.rb_io_buffer, ptr %51, i32 0, i32 2
  store i32 %50, ptr %52, align 8, !tbaa !18
  %53 = load i64, ptr %7, align 8, !tbaa !20
  %54 = load ptr, ptr %8, align 8, !tbaa !11
  %55 = getelementptr inbounds nuw %struct.rb_io_buffer, ptr %54, i32 0, i32 3
  %56 = load i64, ptr %12, align 8, !tbaa !20
  %57 = call i64 @rb_obj_write(i64 noundef %53, ptr noundef %55, i64 noundef %56, ptr noundef @.str.110, i32 noundef 223)
  br label %58

58:                                               ; preds = %43, %41
  ret void
}