; Function Attrs: nounwind sspstrong uwtable
define internal fastcc void @io_buffer_initialize(i64 noundef %0, ptr noundef writeonly captures(none) %1, ptr noundef %2, i64 noundef %3, i32 noundef %4, i64 noundef %5) unnamed_addr #0 {
  %.not = icmp eq ptr %2, null
  br i1 %.not, label %7, label %23

7:                                                ; preds = %6
  %.not19 = icmp eq i64 %3, 0
  br i1 %.not19, label %rb_obj_write.exit, label %8

8:                                                ; preds = %7
  %9 = and i32 %4, 2
  %.not20 = icmp eq i32 %9, 0
  br i1 %.not20, label %12, label %10

10:                                               ; preds = %8
  %11 = tail call noalias ptr @calloc(i64 noundef %3, i64 noundef 1) #27
  br label %21

12:                                               ; preds = %8
  %13 = and i32 %4, 4
  %.not21 = icmp eq i32 %13, 0
  br i1 %.not21, label %.thread, label %14

14:                                               ; preds = %12
  %15 = and i32 %4, 8
  %.not.i = icmp eq i32 %15, 0
  %..i = select i1 %.not.i, i32 34, i32 33
  %16 = tail call ptr @mmap(ptr noundef null, i64 noundef range(i64 1, 0) %3, i32 noundef 3, i32 noundef %..i, i32 noundef -1, i64 noundef 0) #25
  %17 = icmp eq ptr %16, inttoptr (i64 -1 to ptr)
  br i1 %17, label %18, label %io_buffer_map_memory.exit

18:                                               ; preds = %14
  %19 = tail call ptr @rb_errno_ptr() #25
  %20 = load i32, ptr %19, align 4, !tbaa !34
  tail call void @rb_syserr_fail(i32 noundef %20, ptr noundef nonnull @.str.111) #26
  unreachable

io_buffer_map_memory.exit:                        ; preds = %14
  tail call void @ruby_annotate_mmap(ptr noundef %16, i64 noundef range(i64 1, 0) %3, ptr noundef nonnull @.str.112) #25
  br label %21

21:                                               ; preds = %io_buffer_map_memory.exit, %10
  %.1 = phi ptr [ %11, %10 ], [ %16, %io_buffer_map_memory.exit ]
  %.not22 = icmp eq ptr %.1, null
  br i1 %.not22, label %.thread, label %23

.thread:                                          ; preds = %12, %21
  %22 = load i64, ptr @rb_eIOBufferAllocationError, align 8, !tbaa !22
  tail call void (i64, ptr, ...) @rb_raise(i64 noundef %22, ptr noundef nonnull @.str.109) #26
  unreachable

23:                                               ; preds = %21, %6
  %.0 = phi ptr [ %2, %6 ], [ %.1, %21 ]
  store ptr %.0, ptr %1, align 8, !tbaa !14
  %24 = getelementptr inbounds nuw i8, ptr %1, i64 8
  store i64 %3, ptr %24, align 8, !tbaa !16
  %25 = getelementptr inbounds nuw i8, ptr %1, i64 16
  store i32 %4, ptr %25, align 8, !tbaa !15
  %26 = getelementptr inbounds nuw i8, ptr %1, i64 24
  store i64 %5, ptr %26, align 8, !tbaa !22
  %27 = icmp eq i64 %5, 0
  %28 = and i64 %5, 7
  %29 = icmp ne i64 %28, 0
  %30 = or i1 %27, %29
  br i1 %30, label %rb_obj_write.exit, label %31

31:                                               ; preds = %23
  tail call void @rb_gc_writebarrier(i64 noundef %0, i64 noundef %5) #25
  br label %rb_obj_write.exit

rb_obj_write.exit:                                ; preds = %31, %23, %7
  ret void
}